target datalayout = "e-m:e-p270:32:32-p271:32:32-p272:64:64-i64:64-i128:128-f80:128-n8:16:32:64-S128"
target triple = "x86_64-pc-linux-gnu"

%struct.UDataInfo = type { i16, i16, i8, i8, i8, i8, [4 x i8], [4 x i8], [4 x i8] }

; Function Attrs: mustprogress nounwind uwtable
define internal noundef signext i8 @_ZL15isCnvAcceptablePvPKcS1_PK9UDataInfo(ptr noundef %0, ptr noundef %1, ptr noundef %2, ptr noundef %3) #5 {
  %5 = alloca ptr, align 8
  %6 = alloca ptr, align 8
  %7 = alloca ptr, align 8
  %8 = alloca ptr, align 8
  store ptr %0, ptr %5, align 8, !tbaa !8
  store ptr %1, ptr %6, align 8, !tbaa !31
  store ptr %2, ptr %7, align 8, !tbaa !31
  store ptr %3, ptr %8, align 8, !tbaa !8
  %9 = load ptr, ptr %8, align 8, !tbaa !8
  %10 = getelementptr inbounds nuw %struct.UDataInfo, ptr %9, i32 0, i32 0
  %11 = load i16, ptr %10, align 2, !tbaa !116
  %12 = zext i16 %11 to i32
  %13 = icmp sge i32 %12, 20
  br i1 %13, label %14, label %67

14:                                               ; preds = %4
  %15 = load ptr, ptr %8, align 8, !tbaa !8
  %16 = getelementptr inbounds nuw %struct.UDataInfo, ptr %15, i32 0, i32 2
  %17 = load i8, ptr %16, align 2, !tbaa !118
  %18 = zext i8 %17 to i32
  %19 = icmp eq i32 %18, 0
  br i1 %19, label %20, label %67

20:                                               ; preds = %14
  %21 = load ptr, ptr %8, align 8, !tbaa !8
  %22 = getelementptr inbounds nuw %struct.UDataInfo, ptr %21, i32 0, i32 3
  %23 = load i8, ptr %22, align 1, !tbaa !119
  %24 = zext i8 %23 to i32
  %25 = icmp eq i32 %24, 0
  br i1 %25, label %26, label %67

26:                                               ; preds = %20
  %27 = load ptr, ptr %8, align 8, !tbaa !8
  %28 = getelementptr inbounds nuw %struct.UDataInfo, ptr %27, i32 0, i32 4
  %29 = load i8, ptr %28, align 2, !tbaa !120
  %30 = zext i8 %29 to i32
  %31 = icmp eq i32 %30, 2
  br i1 %31, label %32, label %67

32:                                               ; preds = %26
  %33 = load ptr, ptr %8, align 8, !tbaa !8
  %34 = getelementptr inbounds nuw %struct.UDataInfo, ptr %33, i32 0, i32 6
  %35 = getelementptr inbounds [4 x i8], ptr %34, i64 0, i64 0
  %36 = load i8, ptr %35, align 2, !tbaa !16
  %37 = zext i8 %36 to i32
  %38 = icmp eq i32 %37, 99
  br i1 %38, label %39, label %67

39:                                               ; preds = %32
  %40 = load ptr, ptr %8, align 8, !tbaa !8
  %41 = getelementptr inbounds nuw %struct.UDataInfo, ptr %40, i32 0, i32 6
  %42 = getelementptr inbounds [4 x i8], ptr %41, i64 0, i64 1
  %43 = load i8, ptr %42, align 1, !tbaa !16
  %44 = zext i8 %43 to i32
  %45 = icmp eq i32 %44, 110
  br i1 %45, label %46, label %67

46:                                               ; preds = %39
  %47 = load ptr, ptr %8, align 8, !tbaa !8
  %48 = getelementptr inbounds nuw %struct.UDataInfo, ptr %47, i32 0, i32 6
  %49 = getelementptr inbounds [4 x i8], ptr %48, i64 0, i64 2
  %50 = load i8, ptr %49, align 2, !tbaa !16
  %51 = zext i8 %50 to i32
  %52 = icmp eq i32 %51, 118
  br i1 %52, label %53, label %67

53:                                               ; preds = %46
  %54 = load ptr, ptr %8, align 8, !tbaa !8
  %55 = getelementptr inbounds nuw %struct.UDataInfo, ptr %54, i32 0, i32 6
  %56 = getelementptr inbounds [4 x i8], ptr %55, i64 0, i64 3
  %57 = load i8, ptr %56, align 1, !tbaa !16
  %58 = zext i8 %57 to i32
  %59 = icmp eq i32 %58, 116
  br i1 %59, label %60, label %67

60:                                               ; preds = %53
  %61 = load ptr, ptr %8, align 8, !tbaa !8
  %62 = getelementptr inbounds nuw %struct.UDataInfo, ptr %61, i32 0, i32 7
  %63 = getelementptr inbounds [4 x i8], ptr %62, i64 0, i64 0
  %64 = load i8, ptr %63, align 2, !tbaa !16
  %65 = zext i8 %64 to i32
  %66 = icmp eq i32 %65, 6
  br label %67

67:                                               ; preds = %60, %53, %46, %39, %32, %26, %20, %14, %4
  %68 = phi i1 [ false, %53 ], [ false, %46 ], [ false, %39 ], [ false, %32 ], [ false, %26 ], [ false, %20 ], [ false, %14 ], [ false, %4 ], [ %66, %60 ]
  %69 = zext i1 %68 to i8
  ret i8 %69
}