; Function Attrs: mustprogress nofree norecurse nosync nounwind willreturn memory(argmem: read) uwtable
define internal noundef signext range(i8 0, 2) i8 @_ZL15isCnvAcceptablePvPKcS1_PK9UDataInfo(ptr readnone captures(none) %0, ptr readnone captures(none) %1, ptr readnone captures(none) %2, ptr noundef readonly captures(none) %3) #9 {
  %5 = load i16, ptr %3, align 2, !tbaa !102
  %6 = icmp ugt i16 %5, 19
  br i1 %6, label %7, label %40

7:                                                ; preds = %4
  %8 = getelementptr inbounds nuw i8, ptr %3, i64 4
  %9 = load i8, ptr %8, align 2, !tbaa !104
  %10 = icmp eq i8 %9, 0
  br i1 %10, label %11, label %40

11:                                               ; preds = %7
  %12 = getelementptr inbounds nuw i8, ptr %3, i64 5
  %13 = load i8, ptr %12, align 1, !tbaa !105
  %14 = icmp eq i8 %13, 0
  br i1 %14, label %15, label %40

15:                                               ; preds = %11
  %16 = getelementptr inbounds nuw i8, ptr %3, i64 6
  %17 = load i8, ptr %16, align 2, !tbaa !106
  %18 = icmp eq i8 %17, 2
  br i1 %18, label %19, label %40

19:                                               ; preds = %15
  %20 = getelementptr inbounds nuw i8, ptr %3, i64 8
  %21 = load i8, ptr %20, align 2, !tbaa !19
  %22 = icmp eq i8 %21, 99
  br i1 %22, label %23, label %40

23:                                               ; preds = %19
  %24 = getelementptr inbounds nuw i8, ptr %3, i64 9
  %25 = load i8, ptr %24, align 1, !tbaa !19
  %26 = icmp eq i8 %25, 110
  br i1 %26, label %27, label %40

27:                                               ; preds = %23
  %28 = getelementptr inbounds nuw i8, ptr %3, i64 10
  %29 = load i8, ptr %28, align 2, !tbaa !19
  %30 = icmp eq i8 %29, 118
  br i1 %30, label %31, label %40

31:                                               ; preds = %27
  %32 = getelementptr inbounds nuw i8, ptr %3, i64 11
  %33 = load i8, ptr %32, align 1, !tbaa !19
  %34 = icmp eq i8 %33, 116
  br i1 %34, label %35, label %40

35:                                               ; preds = %31
  %36 = getelementptr inbounds nuw i8, ptr %3, i64 12
  %37 = load i8, ptr %36, align 2, !tbaa !19
  %38 = icmp eq i8 %37, 6
  %39 = zext i1 %38 to i8
  br label %40

40:                                               ; preds = %35, %31, %27, %23, %19, %15, %11, %7, %4
  %41 = phi i8 [ 0, %31 ], [ 0, %27 ], [ 0, %23 ], [ 0, %19 ], [ 0, %15 ], [ 0, %11 ], [ 0, %7 ], [ 0, %4 ], [ %39, %35 ]
  ret i8 %41
}